target datalayout = "e-m:e-p270:32:32-p271:32:32-p272:64:64-i64:64-i128:128-f80:128-n8:16:32:64-S128"
target triple = "x86_64-pc-linux-gnu"

%"struct.pkpy::Dict" = type { ptr, i32, i32, i32, i32, i32, i32, ptr, ptr }

; Function Attrs: mustprogress nounwind uwtable
define void @_ZN4pkpy4DictC2ERKS0_(ptr noundef nonnull align 8 dereferenceable(48) %0, ptr noundef nonnull align 8 dereferenceable(48) %1) unnamed_addr #4 align 2 {
  %3 = alloca ptr, align 8
  %4 = alloca ptr, align 8
  store ptr %0, ptr %3, align 8
  store ptr %1, ptr %4, align 8
  %5 = load ptr, ptr %3, align 8
  %6 = load ptr, ptr %4, align 8
  %7 = getelementptr inbounds %"struct.pkpy::Dict", ptr %6, i32 0, i32 0
  %8 = load ptr, ptr %7, align 8
  %9 = getelementptr inbounds %"struct.pkpy::Dict", ptr %5, i32 0, i32 0
  store ptr %8, ptr %9, align 8
  %10 = load ptr, ptr %4, align 8
  %11 = getelementptr inbounds %"struct.pkpy::Dict", ptr %10, i32 0, i32 1
  %12 = load i32, ptr %11, align 8
  %13 = getelementptr inbounds %"struct.pkpy::Dict", ptr %5, i32 0, i32 1
  store i32 %12, ptr %13, align 8
  %14 = load ptr, ptr %4, align 8
  %15 = getelementptr inbounds %"struct.pkpy::Dict", ptr %14, i32 0, i32 2
  %16 = load i32, ptr %15, align 4
  %17 = getelementptr inbounds %"struct.pkpy::Dict", ptr %5, i32 0, i32 2
  store i32 %16, ptr %17, align 4
  %18 = load ptr, ptr %4, align 8
  %19 = getelementptr inbounds %"struct.pkpy::Dict", ptr %18, i32 0, i32 3
  %20 = load i32, ptr %19, align 8
  %21 = getelementptr inbounds %"struct.pkpy::Dict", ptr %5, i32 0, i32 3
  store i32 %20, ptr %21, align 8
  %22 = load ptr, ptr %4, align 8
  %23 = getelementptr inbounds %"struct.pkpy::Dict", ptr %22, i32 0, i32 4
  %24 = load i32, ptr %23, align 4
  %25 = getelementptr inbounds %"struct.pkpy::Dict", ptr %5, i32 0, i32 4
  store i32 %24, ptr %25, align 4
  %26 = load ptr, ptr %4, align 8
  %27 = getelementptr inbounds %"struct.pkpy::Dict", ptr %26, i32 0, i32 5
  %28 = load i32, ptr %27, align 8
  %29 = getelementptr inbounds %"struct.pkpy::Dict", ptr %5, i32 0, i32 5
  store i32 %28, ptr %29, align 8
  %30 = load ptr, ptr %4, align 8
  %31 = getelementptr inbounds %"struct.pkpy::Dict", ptr %30, i32 0, i32 6
  %32 = load i32, ptr %31, align 4
  %33 = getelementptr inbounds %"struct.pkpy::Dict", ptr %5, i32 0, i32 6
  store i32 %32, ptr %33, align 4
  %34 = getelementptr inbounds %"struct.pkpy::Dict", ptr %5, i32 0, i32 1
  %35 = load i32, ptr %34, align 8
  %36 = sext i32 %35 to i64
  %37 = mul i64 %36, 16
  %38 = call noundef ptr @_ZN4pkpy13pool128_allocEm(i64 noundef %37) #3
  %39 = getelementptr inbounds %"struct.pkpy::Dict", ptr %5, i32 0, i32 7
  store ptr %38, ptr %39, align 8
  %40 = getelementptr inbounds %"struct.pkpy::Dict", ptr %5, i32 0, i32 7
  %41 = load ptr, ptr %40, align 8
  %42 = load ptr, ptr %4, align 8
  %43 = getelementptr inbounds %"struct.pkpy::Dict", ptr %42, i32 0, i32 7
  %44 = load ptr, ptr %43, align 8
  %45 = getelementptr inbounds %"struct.pkpy::Dict", ptr %5, i32 0, i32 1
  %46 = load i32, ptr %45, align 8
  %47 = sext i32 %46 to i64
  %48 = mul i64 %47, 16
  call void @llvm.memcpy.p0.p0.i64(ptr align 8 %41, ptr align 8 %44, i64 %48, i1 false)
  %49 = getelementptr inbounds %"struct.pkpy::Dict", ptr %5, i32 0, i32 1
  %50 = load i32, ptr %49, align 8
  %51 = sext i32 %50 to i64
  %52 = mul i64 %51, 8
  %53 = call noundef ptr @_ZN4pkpy12pool64_allocEm(i64 noundef %52) #3
  %54 = getelementptr inbounds %"struct.pkpy::Dict", ptr %5, i32 0, i32 8
  store ptr %53, ptr %54, align 8
  %55 = getelementptr inbounds %"struct.pkpy::Dict", ptr %5, i32 0, i32 8
  %56 = load ptr, ptr %55, align 8
  %57 = load ptr, ptr %4, align 8
  %58 = getelementptr inbounds %"struct.pkpy::Dict", ptr %57, i32 0, i32 8
  %59 = load ptr, ptr %58, align 8
  %60 = getelementptr inbounds %"struct.pkpy::Dict", ptr %5, i32 0, i32 1
  %61 = load i32, ptr %60, align 8
  %62 = sext i32 %61 to i64
  %63 = mul i64 %62, 8
  call void @llvm.memcpy.p0.p0.i64(ptr align 4 %56, ptr align 4 %59, i64 %63, i1 false)
  ret void
}