; Function Attrs: mustprogress nounwind uwtable
define void @_ZN4pkpy4DictC2ERKS0_(ptr nocapture noundef nonnull align 8 dereferenceable(48) %0, ptr nocapture noundef nonnull readonly align 8 dereferenceable(48) %1) unnamed_addr #3 align 2 {
  %3 = load ptr, ptr %1, align 8
  store ptr %3, ptr %0, align 8
  %4 = getelementptr inbounds i8, ptr %1, i64 8
  %5 = load i32, ptr %4, align 8
  %6 = getelementptr inbounds i8, ptr %0, i64 8
  store i32 %5, ptr %6, align 8
  %7 = getelementptr inbounds i8, ptr %1, i64 12
  %8 = load i32, ptr %7, align 4
  %9 = getelementptr inbounds i8, ptr %0, i64 12
  store i32 %8, ptr %9, align 4
  %10 = getelementptr inbounds i8, ptr %1, i64 16
  %11 = load i32, ptr %10, align 8
  %12 = getelementptr inbounds i8, ptr %0, i64 16
  store i32 %11, ptr %12, align 8
  %13 = getelementptr inbounds i8, ptr %1, i64 20
  %14 = load i32, ptr %13, align 4
  %15 = getelementptr inbounds i8, ptr %0, i64 20
  store i32 %14, ptr %15, align 4
  %16 = getelementptr inbounds i8, ptr %1, i64 24
  %17 = load i32, ptr %16, align 8
  %18 = getelementptr inbounds i8, ptr %0, i64 24
  store i32 %17, ptr %18, align 8
  %19 = getelementptr inbounds i8, ptr %1, i64 28
  %20 = load i32, ptr %19, align 4
  %21 = getelementptr inbounds i8, ptr %0, i64 28
  store i32 %20, ptr %21, align 4
  %22 = sext i32 %5 to i64
  %23 = shl nsw i64 %22, 4
  %24 = tail call noundef ptr @_ZN4pkpy13pool128_allocEm(i64 noundef %23) #16
  %25 = getelementptr inbounds i8, ptr %0, i64 32
  store ptr %24, ptr %25, align 8
  %26 = getelementptr inbounds i8, ptr %1, i64 32
  %27 = load ptr, ptr %26, align 8
  %28 = load i32, ptr %6, align 8
  %29 = sext i32 %28 to i64
  %30 = shl nsw i64 %29, 4
  tail call void @llvm.memcpy.p0.p0.i64(ptr align 8 %24, ptr align 8 %27, i64 %30, i1 false)
  %31 = load i32, ptr %6, align 8
  %32 = sext i32 %31 to i64
  %33 = shl nsw i64 %32, 3
  %34 = tail call noundef ptr @_ZN4pkpy12pool64_allocEm(i64 noundef %33) #16
  %35 = getelementptr inbounds i8, ptr %0, i64 40
  store ptr %34, ptr %35, align 8
  %36 = getelementptr inbounds i8, ptr %1, i64 40
  %37 = load ptr, ptr %36, align 8
  %38 = load i32, ptr %6, align 8
  %39 = sext i32 %38 to i64
  %40 = shl nsw i64 %39, 3
  tail call void @llvm.memcpy.p0.p0.i64(ptr align 4 %34, ptr align 4 %37, i64 %40, i1 false)
  ret void
}